; Function Attrs: mustprogress nofree norecurse nosync nounwind willreturn memory(argmem: readwrite) uwtable
define noundef nonnull align 8 dereferenceable(48) ptr @_ZN6icu_7712CollationKey10setToBogusEv(ptr noundef nonnull returned align 8 dereferenceable(48) initializes((12, 16)) %0) local_unnamed_addr #3 align 2 {
  %2 = getelementptr inbounds nuw i8, ptr %0, i64 8
  %3 = load i32, ptr %2, align 8, !tbaa !6
  %4 = and i32 %3, -2147483648
  store i32 %4, ptr %2, align 8, !tbaa !6
  %5 = getelementptr inbounds nuw i8, ptr %0, i64 12
  store i32 2, ptr %5, align 4, !tbaa !11
  ret ptr %0
}